target datalayout = "e-m:e-p270:32:32-p271:32:32-p272:64:64-i64:64-i128:128-f80:128-n8:16:32:64-S128"
target triple = "x86_64-pc-linux-gnu"

%struct._zval_struct = type { %union._zend_value, %union.anon, %union.anon.2 }
%union._zend_value = type { i64 }
%union.anon = type { i32 }
%union.anon.2 = type { i32 }
%struct._zend_op_array = type { i8, [3 x i8], i32, ptr, ptr, ptr, i32, i32, ptr, ptr, ptr, ptr, i32, i32, i32, i32, ptr, ptr, ptr, ptr, ptr, i32, i32, ptr, ptr, ptr, i32, i32, i32, i32, ptr, ptr, [6 x ptr] }
%struct._zend_op = type { ptr, %union._znode_op, %union._znode_op, %union._znode_op, i32, i32, i8, i8, i8, i8 }
%union._znode_op = type { i32 }
%struct._zend_execute_data = type { ptr, ptr, ptr, ptr, %struct._zval_struct, ptr, ptr, ptr, ptr }
%struct.anon.0 = type { i8, i8, %union.anon.1 }
%union.anon.1 = type { i16 }

; Function Attrs: nounwind uwtable
define hidden void @zend_jit_copy_extra_args_helper(ptr noundef %0) #0 {
  %2 = alloca ptr, align 8
  %3 = alloca ptr, align 8
  %4 = alloca i32, align 4
  %5 = alloca i32, align 4
  %6 = alloca ptr, align 8
  %7 = alloca ptr, align 8
  %8 = alloca ptr, align 8
  %9 = alloca i32, align 4
  %10 = alloca ptr, align 8
  %11 = alloca ptr, align 8
  %12 = alloca ptr, align 8
  %13 = alloca i32, align 4
  store ptr %0, ptr %2, align 8
  %14 = load ptr, ptr %2, align 8
  %15 = getelementptr inbounds %struct._zend_execute_data, ptr %14, i32 0, i32 3
  %16 = load ptr, ptr %15, align 8
  store ptr %16, ptr %3, align 8
  %17 = load ptr, ptr %3, align 8
  %18 = getelementptr inbounds %struct._zend_op_array, ptr %17, i32 0, i32 2
  %19 = load i32, ptr %18, align 4
  %20 = and i32 %19, 262144
  %21 = icmp ne i32 %20, 0
  %22 = xor i1 %21, true
  %23 = xor i1 %22, true
  %24 = xor i1 %23, true
  %25 = zext i1 %24 to i32
  %26 = sext i32 %25 to i64
  %27 = icmp ne i64 %26, 0
  br i1 %27, label %28, label %165

28:                                               ; preds = %1
  %29 = load ptr, ptr %3, align 8
  %30 = getelementptr inbounds %struct._zend_op_array, ptr %29, i32 0, i32 6
  %31 = load i32, ptr %30, align 8
  store i32 %31, ptr %4, align 4
  %32 = load ptr, ptr %2, align 8
  %33 = getelementptr inbounds %struct._zend_execute_data, ptr %32, i32 0, i32 4
  %34 = getelementptr inbounds %struct._zval_struct, ptr %33, i32 0, i32 2
  %35 = load i32, ptr %34, align 4
  store i32 %35, ptr %5, align 4
  store i32 0, ptr %9, align 4
  %36 = load ptr, ptr %3, align 8
  %37 = getelementptr inbounds %struct._zend_op_array, ptr %36, i32 0, i32 2
  %38 = load i32, ptr %37, align 4
  %39 = and i32 %38, 256
  %40 = icmp eq i32 %39, 0
  %41 = xor i1 %40, true
  %42 = xor i1 %41, true
  %43 = zext i1 %42 to i32
  %44 = sext i32 %43 to i64
  %45 = icmp ne i64 %44, 0
  br i1 %45, label %46, label %53

46:                                               ; preds = %28
  %47 = load i32, ptr %4, align 4
  %48 = load ptr, ptr %2, align 8
  %49 = getelementptr inbounds %struct._zend_execute_data, ptr %48, i32 0, i32 0
  %50 = load ptr, ptr %49, align 8
  %51 = zext i32 %47 to i64
  %52 = getelementptr inbounds %struct._zend_op, ptr %50, i64 %51
  store ptr %52, ptr %49, align 8
  br label %53

53:                                               ; preds = %46, %28
  %54 = load ptr, ptr %2, align 8
  %55 = load i32, ptr %4, align 4
  %56 = sub i32 %55, 1
  %57 = add nsw i32 5, %56
  %58 = sext i32 %57 to i64
  %59 = getelementptr inbounds %struct._zval_struct, ptr %54, i64 %58
  store ptr %59, ptr %6, align 8
  %60 = load ptr, ptr %6, align 8
  %61 = load i32, ptr %5, align 4
  %62 = load i32, ptr %4, align 4
  %63 = sub i32 %61, %62
  %64 = zext i32 %63 to i64
  %65 = getelementptr inbounds %struct._zval_struct, ptr %60, i64 %64
  store ptr %65, ptr %7, align 8
  %66 = load ptr, ptr %7, align 8
  %67 = load ptr, ptr %3, align 8
  %68 = getelementptr inbounds %struct._zend_op_array, ptr %67, i32 0, i32 14
  %69 = load i32, ptr %68, align 8
  %70 = load ptr, ptr %3, align 8
  %71 = getelementptr inbounds %struct._zend_op_array, ptr %70, i32 0, i32 12
  %72 = load i32, ptr %71, align 8
  %73 = add i32 %69, %72
  %74 = load i32, ptr %4, align 4
  %75 = sub i32 %73, %74
  %76 = zext i32 %75 to i64
  %77 = getelementptr inbounds %struct._zval_struct, ptr %66, i64 %76
  store ptr %77, ptr %8, align 8
  %78 = load ptr, ptr %7, align 8
  %79 = load ptr, ptr %8, align 8
  %80 = icmp ne ptr %78, %79
  %81 = xor i1 %80, true
  %82 = xor i1 %81, true
  %83 = zext i1 %82 to i32
  %84 = sext i32 %83 to i64
  %85 = icmp ne i64 %84, 0
  br i1 %85, label %86, label %138

86:                                               ; preds = %53
  br label %87

87:                                               ; preds = %119, %86
  %88 = load ptr, ptr %7, align 8
  %89 = getelementptr inbounds %struct._zval_struct, ptr %88, i32 0, i32 1
  %90 = load i32, ptr %89, align 8
  %91 = load i32, ptr %9, align 4
  %92 = or i32 %91, %90
  store i32 %92, ptr %9, align 4
  br label %93

93:                                               ; preds = %87
  %94 = load ptr, ptr %8, align 8
  store ptr %94, ptr %10, align 8
  %95 = load ptr, ptr %7, align 8
  store ptr %95, ptr %11, align 8
  %96 = load ptr, ptr %11, align 8
  %97 = getelementptr inbounds %struct._zval_struct, ptr %96, i32 0, i32 0
  %98 = load ptr, ptr %97, align 8
  store ptr %98, ptr %12, align 8
  %99 = load ptr, ptr %11, align 8
  %100 = getelementptr inbounds %struct._zval_struct, ptr %99, i32 0, i32 1
  %101 = load i32, ptr %100, align 8
  store i32 %101, ptr %13, align 4
  br label %102

102:                                              ; preds = %93
  %103 = load ptr, ptr %12, align 8
  %104 = load ptr, ptr %10, align 8
  %105 = getelementptr inbounds %struct._zval_struct, ptr %104, i32 0, i32 0
  store ptr %103, ptr %105, align 8
  %106 = load i32, ptr %13, align 4
  %107 = load ptr, ptr %10, align 8
  %108 = getelementptr inbounds %struct._zval_struct, ptr %107, i32 0, i32 1
  store i32 %106, ptr %108, align 8
  br label %109

109:                                              ; preds = %102
  br label %110

110:                                              ; preds = %109
  br label %111

111:                                              ; preds = %110
  %112 = load ptr, ptr %7, align 8
  %113 = getelementptr inbounds %struct._zval_struct, ptr %112, i32 0, i32 1
  store i32 0, ptr %113, align 8
  br label %114

114:                                              ; preds = %111
  %115 = load ptr, ptr %7, align 8
  %116 = getelementptr inbounds %struct._zval_struct, ptr %115, i32 -1
  store ptr %116, ptr %7, align 8
  %117 = load ptr, ptr %8, align 8
  %118 = getelementptr inbounds %struct._zval_struct, ptr %117, i32 -1
  store ptr %118, ptr %8, align 8
  br label %119

119:                                              ; preds = %114
  %120 = load ptr, ptr %7, align 8
  %121 = load ptr, ptr %6, align 8
  %122 = icmp ne ptr %120, %121
  br i1 %122, label %87, label %123

123:                                              ; preds = %119
  %124 = load i32, ptr %9, align 4
  %125 = and i32 %124, 256
  %126 = icmp ne i32 %125, 0
  br i1 %126, label %127, label %137

127:                                              ; preds = %123
  br label %128

128:                                              ; preds = %127
  br label %129

129:                                              ; preds = %128
  %130 = load ptr, ptr %2, align 8
  %131 = getelementptr inbounds %struct._zend_execute_data, ptr %130, i32 0, i32 4
  %132 = getelementptr inbounds %struct._zval_struct, ptr %131, i32 0, i32 1
  %133 = load i32, ptr %132, align 8
  %134 = or i32 %133, 524288
  store i32 %134, ptr %132, align 8
  br label %135

135:                                              ; preds = %129
  br label %136

136:                                              ; preds = %135
  br label %137

137:                                              ; preds = %136, %123
  br label %164

138:                                              ; preds = %53
  br label %139

139:                                              ; preds = %159, %138
  %140 = load ptr, ptr %7, align 8
  %141 = getelementptr inbounds %struct._zval_struct, ptr %140, i32 0, i32 1
  %142 = getelementptr inbounds %struct.anon.0, ptr %141, i32 0, i32 1
  %143 = load i8, ptr %142, align 1
  %144 = zext i8 %143 to i32
  %145 = icmp ne i32 %144, 0
  br i1 %145, label %146, label %156

146:                                              ; preds = %139
  br label %147

147:                                              ; preds = %146
  br label %148

148:                                              ; preds = %147
  %149 = load ptr, ptr %2, align 8
  %150 = getelementptr inbounds %struct._zend_execute_data, ptr %149, i32 0, i32 4
  %151 = getelementptr inbounds %struct._zval_struct, ptr %150, i32 0, i32 1
  %152 = load i32, ptr %151, align 8
  %153 = or i32 %152, 524288
  store i32 %153, ptr %151, align 8
  br label %154

154:                                              ; preds = %148
  br label %155

155:                                              ; preds = %154
  br label %163

156:                                              ; preds = %139
  %157 = load ptr, ptr %7, align 8
  %158 = getelementptr inbounds %struct._zval_struct, ptr %157, i32 -1
  store ptr %158, ptr %7, align 8
  br label %159

159:                                              ; preds = %156
  %160 = load ptr, ptr %7, align 8
  %161 = load ptr, ptr %6, align 8
  %162 = icmp ne ptr %160, %161
  br i1 %162, label %139, label %163

163:                                              ; preds = %159, %155
  br label %164

164:                                              ; preds = %163, %137
  br label %165

165:                                              ; preds = %164, %1
  ret void
}