; Function Attrs: nofree norecurse nosync nounwind memory(readwrite, inaccessiblemem: none) uwtable
define hidden void @zend_jit_copy_extra_args_helper(ptr noundef %0) local_unnamed_addr #2 {
  %2 = getelementptr inbounds i8, ptr %0, i64 24
  %3 = load ptr, ptr %2, align 8
  %4 = getelementptr inbounds i8, ptr %3, i64 4
  %5 = load i32, ptr %4, align 4
  %6 = and i32 %5, 262144
  %.not = icmp eq i32 %6, 0
  br i1 %.not, label %7, label %.loopexit

7:                                                ; preds = %1
  %8 = getelementptr inbounds i8, ptr %3, i64 32
  %9 = load i32, ptr %8, align 8
  %10 = getelementptr inbounds i8, ptr %0, i64 44
  %11 = load i32, ptr %10, align 4
  %12 = and i32 %5, 256
  %13 = icmp eq i32 %12, 0
  br i1 %13, label %14, label %18

14:                                               ; preds = %7
  %15 = load ptr, ptr %0, align 8
  %16 = zext i32 %9 to i64
  %17 = getelementptr inbounds %struct._zend_op, ptr %15, i64 %16
  store ptr %17, ptr %0, align 8
  br label %18

18:                                               ; preds = %14, %7
  %19 = add i32 %9, 4
  %20 = sext i32 %19 to i64
  %21 = getelementptr inbounds %struct._zval_struct, ptr %0, i64 %20
  %22 = sub i32 %11, %9
  %23 = zext i32 %22 to i64
  %24 = getelementptr inbounds %struct._zval_struct, ptr %21, i64 %23
  %25 = getelementptr inbounds i8, ptr %3, i64 80
  %26 = load i32, ptr %25, align 8
  %27 = getelementptr inbounds i8, ptr %3, i64 72
  %28 = load i32, ptr %27, align 8
  %29 = add i32 %28, %26
  %.not45 = icmp eq i32 %29, %9
  br i1 %.not45, label %.preheader, label %.preheader50.preheader

.preheader50.preheader:                           ; preds = %18
  %30 = sub i32 %29, %9
  %31 = zext i32 %30 to i64
  %32 = getelementptr inbounds %struct._zval_struct, ptr %24, i64 %31
  br label %.preheader50

.preheader50:                                     ; preds = %.preheader50.preheader, %.preheader50
  %.040 = phi i32 [ %35, %.preheader50 ], [ 0, %.preheader50.preheader ]
  %.039 = phi ptr [ %39, %.preheader50 ], [ %32, %.preheader50.preheader ]
  %.0 = phi ptr [ %38, %.preheader50 ], [ %24, %.preheader50.preheader ]
  %33 = getelementptr inbounds i8, ptr %.0, i64 8
  %34 = load i32, ptr %33, align 8
  %35 = or i32 %34, %.040
  %36 = load ptr, ptr %.0, align 8
  store ptr %36, ptr %.039, align 8
  %37 = getelementptr inbounds i8, ptr %.039, i64 8
  store i32 %34, ptr %37, align 8
  store i32 0, ptr %33, align 8
  %38 = getelementptr inbounds i8, ptr %.0, i64 -16
  %39 = getelementptr inbounds i8, ptr %.039, i64 -16
  %.not48 = icmp eq ptr %38, %21
  br i1 %.not48, label %40, label %.preheader50

40:                                               ; preds = %.preheader50
  %41 = and i32 %35, 256
  %.not49 = icmp eq i32 %41, 0
  br i1 %.not49, label %.loopexit, label %.loopexit.sink.split

.preheader:                                       ; preds = %18, %44
  %.1 = phi ptr [ %45, %44 ], [ %24, %18 ]
  %42 = getelementptr inbounds i8, ptr %.1, i64 9
  %43 = load i8, ptr %42, align 1
  %.not46 = icmp eq i8 %43, 0
  br i1 %.not46, label %44, label %.loopexit.sink.split

44:                                               ; preds = %.preheader
  %45 = getelementptr inbounds i8, ptr %.1, i64 -16
  %.not47 = icmp eq ptr %45, %21
  br i1 %.not47, label %.loopexit, label %.preheader

.loopexit.sink.split:                             ; preds = %.preheader, %40
  %46 = getelementptr inbounds i8, ptr %0, i64 40
  %47 = load i32, ptr %46, align 8
  %48 = or i32 %47, 524288
  store i32 %48, ptr %46, align 8
  br label %.loopexit

.loopexit:                                        ; preds = %44, %.loopexit.sink.split, %40, %1
  ret void
}